target datalayout = "e-m:e-p270:32:32-p271:32:32-p272:64:64-i64:64-i128:128-f80:128-n8:16:32:64-S128"
target triple = "x86_64-pc-linux-gnu"

%struct.JSValue = type { %union.JSValueUnion, i64 }
%union.JSValueUnion = type { double }
%struct.JSSTDFile = type { ptr, i32, i32 }

@js_std_file_class_id = internal global i32 0, align 4
@.str.41 = private unnamed_addr constant [20 x i8] c"invalid file handle\00", align 1

; Function Attrs: nounwind uwtable
define internal ptr @js_std_file_get(ptr noundef %0, i64 %1, i64 %2) #0 {
  %4 = alloca ptr, align 8
  %5 = alloca %struct.JSValue, align 8
  %6 = alloca ptr, align 8
  %7 = alloca ptr, align 8
  %8 = alloca %struct.JSValue, align 8
  %9 = getelementptr inbounds { i64, i64 }, ptr %5, i32 0, i32 0
  store i64 %1, ptr %9, align 8
  %10 = getelementptr inbounds { i64, i64 }, ptr %5, i32 0, i32 1
  store i64 %2, ptr %10, align 8
  store ptr %0, ptr %6, align 8
  %11 = load ptr, ptr %6, align 8
  %12 = load i32, ptr @js_std_file_class_id, align 4
  %13 = getelementptr inbounds { i64, i64 }, ptr %5, i32 0, i32 0
  %14 = load i64, ptr %13, align 8
  %15 = getelementptr inbounds { i64, i64 }, ptr %5, i32 0, i32 1
  %16 = load i64, ptr %15, align 8
  %17 = call ptr @JS_GetOpaque2(ptr noundef %11, i64 %14, i64 %16, i32 noundef %12)
  store ptr %17, ptr %7, align 8
  %18 = load ptr, ptr %7, align 8
  %19 = icmp ne ptr %18, null
  br i1 %19, label %21, label %20

20:                                               ; preds = %3
  store ptr null, ptr %4, align 8
  br label %37

21:                                               ; preds = %3
  %22 = load ptr, ptr %7, align 8
  %23 = getelementptr inbounds %struct.JSSTDFile, ptr %22, i32 0, i32 0
  %24 = load ptr, ptr %23, align 8
  %25 = icmp ne ptr %24, null
  br i1 %25, label %33, label %26

26:                                               ; preds = %21
  %27 = load ptr, ptr %6, align 8
  %28 = call { i64, i64 } (ptr, ptr, ...) @JS_ThrowTypeError(ptr noundef %27, ptr noundef @.str.41)
  %29 = getelementptr inbounds { i64, i64 }, ptr %8, i32 0, i32 0
  %30 = extractvalue { i64, i64 } %28, 0
  store i64 %30, ptr %29, align 8
  %31 = getelementptr inbounds { i64, i64 }, ptr %8, i32 0, i32 1
  %32 = extractvalue { i64, i64 } %28, 1
  store i64 %32, ptr %31, align 8
  store ptr null, ptr %4, align 8
  br label %37

33:                                               ; preds = %21
  %34 = load ptr, ptr %7, align 8
  %35 = getelementptr inbounds %struct.JSSTDFile, ptr %34, i32 0, i32 0
  %36 = load ptr, ptr %35, align 8
  store ptr %36, ptr %4, align 8
  br label %37

37:                                               ; preds = %33, %26, %20
  %38 = load ptr, ptr %4, align 8
  ret ptr %38
}

; Function Attrs: nounwind uwtable
define internal { i64, i64 } @js_std_file_seek(ptr noundef %0, i64 %1, i64 %2, i32 noundef %3, ptr noundef %4) #0 {
  %6 = alloca %struct.JSValue, align 8
  %7 = alloca ptr, align 8
  %8 = alloca i32, align 4
  %9 = alloca %struct.JSValue, align 8
  %10 = alloca %struct.JSValue, align 8
  %11 = alloca ptr, align 8
  %12 = alloca i32, align 4
  %13 = alloca ptr, align 8
  %14 = alloca ptr, align 8
  %15 = alloca i64, align 8
  %16 = alloca i32, align 4
  %17 = alloca i32, align 4
  %18 = getelementptr inbounds { i64, i64 }, ptr %10, i32 0, i32 0
  store i64 %1, ptr %18, align 8
  %19 = getelementptr inbounds { i64, i64 }, ptr %10, i32 0, i32 1
  store i64 %2, ptr %19, align 8
  store ptr %0, ptr %11, align 8
  store i32 %3, ptr %12, align 4
  store ptr %4, ptr %13, align 8
  %20 = load ptr, ptr %11, align 8
  %21 = getelementptr inbounds { i64, i64 }, ptr %10, i32 0, i32 0
  %22 = load i64, ptr %21, align 8
  %23 = getelementptr inbounds { i64, i64 }, ptr %10, i32 0, i32 1
  %24 = load i64, ptr %23, align 8
  %25 = call ptr @js_std_file_get(ptr noundef %20, i64 %22, i64 %24)
  store ptr %25, ptr %14, align 8
  %26 = load ptr, ptr %14, align 8
  %27 = icmp ne ptr %26, null
  br i1 %27, label %31, label %28

28:                                               ; preds = %5
  %29 = getelementptr inbounds %struct.JSValue, ptr %9, i32 0, i32 0
  store i32 0, ptr %29, align 8
  %30 = getelementptr inbounds %struct.JSValue, ptr %9, i32 0, i32 1
  store i64 6, ptr %30, align 8
  br label %78

31:                                               ; preds = %5
  %32 = load ptr, ptr %11, align 8
  %33 = load ptr, ptr %13, align 8
  %34 = getelementptr %struct.JSValue, ptr %33, i64 0
  %35 = getelementptr inbounds { i64, i64 }, ptr %34, i32 0, i32 0
  %36 = load i64, ptr %35, align 8
  %37 = getelementptr inbounds { i64, i64 }, ptr %34, i32 0, i32 1
  %38 = load i64, ptr %37, align 8
  %39 = call i32 @JS_ToInt64Ext(ptr noundef %32, ptr noundef %15, i64 %36, i64 %38)
  %40 = icmp ne i32 %39, 0
  br i1 %40, label %41, label %44

41:                                               ; preds = %31
  %42 = getelementptr inbounds %struct.JSValue, ptr %9, i32 0, i32 0
  store i32 0, ptr %42, align 8
  %43 = getelementptr inbounds %struct.JSValue, ptr %9, i32 0, i32 1
  store i64 6, ptr %43, align 8
  br label %78

44:                                               ; preds = %31
  %45 = load ptr, ptr %11, align 8
  %46 = load ptr, ptr %13, align 8
  %47 = getelementptr %struct.JSValue, ptr %46, i64 1
  %48 = getelementptr inbounds { i64, i64 }, ptr %47, i32 0, i32 0
  %49 = load i64, ptr %48, align 8
  %50 = getelementptr inbounds { i64, i64 }, ptr %47, i32 0, i32 1
  %51 = load i64, ptr %50, align 8
  %52 = call i32 @JS_ToInt32(ptr noundef %45, ptr noundef %16, i64 %49, i64 %51)
  %53 = icmp ne i32 %52, 0
  br i1 %53, label %54, label %57

54:                                               ; preds = %44
  %55 = getelementptr inbounds %struct.JSValue, ptr %9, i32 0, i32 0
  store i32 0, ptr %55, align 8
  %56 = getelementptr inbounds %struct.JSValue, ptr %9, i32 0, i32 1
  store i64 6, ptr %56, align 8
  br label %78

57:                                               ; preds = %44
  %58 = load ptr, ptr %14, align 8
  %59 = load i64, ptr %15, align 8
  %60 = load i32, ptr %16, align 4
  %61 = call i32 @fseeko(ptr noundef %58, i64 noundef %59, i32 noundef %60)
  store i32 %61, ptr %17, align 4
  %62 = load i32, ptr %17, align 4
  %63 = icmp slt i32 %62, 0
  br i1 %63, label %64, label %68

64:                                               ; preds = %57
  %65 = call ptr @__errno_location() #10
  %66 = load i32, ptr %65, align 4
  %67 = sub i32 0, %66
  store i32 %67, ptr %17, align 4
  br label %68

68:                                               ; preds = %64, %57
  %69 = load ptr, ptr %11, align 8
  %70 = load i32, ptr %17, align 4
  store ptr %69, ptr %7, align 8
  store i32 %70, ptr %8, align 4
  %71 = load i32, ptr %8, align 4
  store i32 %71, ptr %6, align 8
  %72 = getelementptr inbounds %struct.JSValue, ptr %6, i32 0, i32 1
  store i64 0, ptr %72, align 8
  %73 = load { i64, i64 }, ptr %6, align 8
  %74 = getelementptr inbounds { i64, i64 }, ptr %9, i32 0, i32 0
  %75 = extractvalue { i64, i64 } %73, 0
  store i64 %75, ptr %74, align 8
  %76 = getelementptr inbounds { i64, i64 }, ptr %9, i32 0, i32 1
  %77 = extractvalue { i64, i64 } %73, 1
  store i64 %77, ptr %76, align 8
  br label %78

78:                                               ; preds = %68, %54, %41, %28
  %79 = load { i64, i64 }, ptr %9, align 8
  ret { i64, i64 } %79
}