; Function Attrs: nounwind uwtable
define internal { i64, i64 } @js_std_file_seek(ptr noundef %0, i64 %1, i64 %2, i32 %3, ptr nocapture noundef readonly %4) #0 {
  %6 = alloca i64, align 8
  %7 = alloca i32, align 4
  %8 = load i32, ptr @js_std_file_class_id, align 4
  %9 = tail call ptr @JS_GetOpaque2(ptr noundef %0, i64 %1, i64 %2, i32 noundef %8) #29
  %.not.i = icmp eq ptr %9, null
  br i1 %.not.i, label %js_std_file_get.exit.thread, label %10

10:                                               ; preds = %5
  %11 = load ptr, ptr %9, align 8
  %.not9.i = icmp eq ptr %11, null
  br i1 %.not9.i, label %12, label %js_std_file_get.exit

12:                                               ; preds = %10
  %13 = tail call { i64, i64 } (ptr, ptr, ...) @JS_ThrowTypeError(ptr noundef %0, ptr noundef nonnull @.str.41) #29
  br label %js_std_file_get.exit.thread

js_std_file_get.exit:                             ; preds = %10
  %14 = load i64, ptr %4, align 8
  %15 = getelementptr inbounds i8, ptr %4, i64 8
  %16 = load i64, ptr %15, align 8
  %17 = call i32 @JS_ToInt64Ext(ptr noundef %0, ptr noundef nonnull %6, i64 %14, i64 %16) #29
  %.not20 = icmp eq i32 %17, 0
  br i1 %.not20, label %18, label %js_std_file_get.exit.thread

18:                                               ; preds = %js_std_file_get.exit
  %19 = getelementptr i8, ptr %4, i64 16
  %20 = load i64, ptr %19, align 8
  %21 = getelementptr i8, ptr %4, i64 24
  %22 = load i64, ptr %21, align 8
  %23 = call i32 @JS_ToInt32(ptr noundef %0, ptr noundef nonnull %7, i64 %20, i64 %22) #29
  %.not21 = icmp eq i32 %23, 0
  br i1 %.not21, label %24, label %js_std_file_get.exit.thread

24:                                               ; preds = %18
  %25 = load i64, ptr %6, align 8
  %26 = load i32, ptr %7, align 4
  %27 = call i32 @fseeko(ptr noundef nonnull %11, i64 noundef %25, i32 noundef %26)
  %28 = icmp slt i32 %27, 0
  br i1 %28, label %29, label %33

29:                                               ; preds = %24
  %30 = tail call ptr @__errno_location() #28
  %31 = load i32, ptr %30, align 4
  %32 = sub i32 0, %31
  br label %33

33:                                               ; preds = %29, %24
  %.0 = phi i32 [ %32, %29 ], [ %27, %24 ]
  %34 = zext i32 %.0 to i64
  br label %js_std_file_get.exit.thread

js_std_file_get.exit.thread:                      ; preds = %5, %12, %18, %js_std_file_get.exit, %33
  %.sroa.09.0 = phi i64 [ %34, %33 ], [ 0, %js_std_file_get.exit ], [ 0, %18 ], [ 0, %12 ], [ 0, %5 ]
  %.sroa.5.sroa.2.0 = phi i64 [ 0, %33 ], [ 6, %js_std_file_get.exit ], [ 6, %18 ], [ 6, %12 ], [ 6, %5 ]
  %.fca.0.insert = insertvalue { i64, i64 } poison, i64 %.sroa.09.0, 0
  %.fca.1.insert = insertvalue { i64, i64 } %.fca.0.insert, i64 %.sroa.5.sroa.2.0, 1
  ret { i64, i64 } %.fca.1.insert
}